; Function Attrs: null_pointer_is_valid sspstrong uwtable
define hidden ptr @xmpp_get_attr(ptr noundef readonly captures(none) %0, ptr noundef %1) local_unnamed_addr #0 {
  %3 = getelementptr inbounds nuw i8, ptr %0, i64 24
  %4 = load ptr, ptr %3, align 8
  %5 = tail call ptr @g_hash_table_lookup(ptr noundef %4, ptr noundef %1)
  %.not = icmp eq ptr %5, null
  br i1 %.not, label %6, label %.thread

6:                                                ; preds = %2
  %7 = load ptr, ptr %3, align 8
  %8 = tail call ptr @g_hash_table_find(ptr noundef %7, ptr noundef nonnull @attr_find_pred, ptr noundef %1)
  %.not9 = icmp eq ptr %8, null
  br i1 %.not9, label %10, label %.thread

.thread:                                          ; preds = %2, %6
  %.012 = phi ptr [ %8, %6 ], [ %5, %2 ]
  %9 = getelementptr inbounds nuw i8, ptr %.012, i64 24
  store i8 1, ptr %9, align 8
  br label %10

10:                                               ; preds = %.thread, %6
  %.013 = phi ptr [ %.012, %.thread ], [ null, %6 ]
  ret ptr %.013
}